target datalayout = "e-m:e-p270:32:32-p271:32:32-p272:64:64-i64:64-i128:128-f80:128-n8:16:32:64-S128"
target triple = "x86_64-pc-linux-gnu"

%struct.Saig_MvObj_t_ = type { i32, i32, i32 }
%struct.Vec_Ptr_t_ = type { i32, i32, ptr }
%struct.Saig_MvMan_t_ = type { ptr, i32, i32, i32, i32, ptr, ptr, ptr, ptr, ptr, i32, ptr, ptr, ptr, ptr, ptr, i32, [9 x i32], ptr, i32, i32, i32, ptr, i32, ptr }

@.str = private unnamed_addr constant [7 x i8] c"%3d : \00", align 1
@.str.1 = private unnamed_addr constant [6 x i8] c"    *\00", align 1
@.str.2 = private unnamed_addr constant [4 x i8] c"%5d\00", align 1
@.str.3 = private unnamed_addr constant [2 x i8] c"\0A\00", align 1

; Function Attrs: inlinehint nounwind uwtable
define internal ptr @Vec_PtrEntry(ptr noundef %0, i32 noundef %1) #2 {
  %3 = alloca ptr, align 8
  %4 = alloca i32, align 4
  store ptr %0, ptr %3, align 8, !tbaa !10
  store i32 %1, ptr %4, align 4, !tbaa !14
  %5 = load ptr, ptr %3, align 8, !tbaa !10
  %6 = getelementptr inbounds nuw %struct.Vec_Ptr_t_, ptr %5, i32 0, i32 2
  %7 = load ptr, ptr %6, align 8, !tbaa !38
  %8 = load i32, ptr %4, align 4, !tbaa !14
  %9 = sext i32 %8 to i64
  %10 = getelementptr inbounds ptr, ptr %7, i64 %9
  %11 = load ptr, ptr %10, align 8, !tbaa !40
  ret ptr %11
}

; Function Attrs: inlinehint nounwind uwtable
define internal i32 @Vec_PtrSize(ptr noundef %0) #2 {
  %2 = alloca ptr, align 8
  store ptr %0, ptr %2, align 8, !tbaa !10
  %3 = load ptr, ptr %2, align 8, !tbaa !10
  %4 = getelementptr inbounds nuw %struct.Vec_Ptr_t_, ptr %3, i32 0, i32 1
  %5 = load i32, ptr %4, align 4, !tbaa !35
  ret i32 %5
}

; Function Attrs: nounwind uwtable
define void @Saig_MvPrintState(i32 noundef %0, ptr noundef %1) #0 {
  %3 = alloca i32, align 4
  %4 = alloca ptr, align 8
  %5 = alloca ptr, align 8
  %6 = alloca i32, align 4
  store i32 %0, ptr %3, align 4, !tbaa !14
  store ptr %1, ptr %4, align 8, !tbaa !44
  call void @llvm.lifetime.start.p0(i64 8, ptr %5) #11
  call void @llvm.lifetime.start.p0(i64 4, ptr %6) #11
  %7 = load i32, ptr %3, align 4, !tbaa !14
  %8 = call i32 (ptr, ...) @printf(ptr noundef @.str, i32 noundef %7)
  store i32 0, ptr %6, align 4, !tbaa !14
  br label %9

9:                                                ; preds = %39, %2
  %10 = load i32, ptr %6, align 4, !tbaa !14
  %11 = load ptr, ptr %4, align 8, !tbaa !44
  %12 = getelementptr inbounds nuw %struct.Saig_MvMan_t_, ptr %11, i32 0, i32 6
  %13 = load ptr, ptr %12, align 8, !tbaa !80
  %14 = call i32 @Vec_PtrSize(ptr noundef %13)
  %15 = icmp slt i32 %10, %14
  br i1 %15, label %16, label %22

16:                                               ; preds = %9
  %17 = load ptr, ptr %4, align 8, !tbaa !44
  %18 = getelementptr inbounds nuw %struct.Saig_MvMan_t_, ptr %17, i32 0, i32 6
  %19 = load ptr, ptr %18, align 8, !tbaa !80
  %20 = load i32, ptr %6, align 4, !tbaa !14
  %21 = call ptr @Vec_PtrEntry(ptr noundef %19, i32 noundef %20)
  store ptr %21, ptr %5, align 8, !tbaa !12
  br label %22

22:                                               ; preds = %16, %9
  %23 = phi i1 [ false, %9 ], [ true, %16 ]
  br i1 %23, label %24, label %42

24:                                               ; preds = %22
  %25 = load ptr, ptr %5, align 8, !tbaa !12
  %26 = getelementptr inbounds nuw %struct.Saig_MvObj_t_, ptr %25, i32 0, i32 2
  %27 = load i32, ptr %26, align 4
  %28 = lshr i32 %27, 3
  %29 = icmp eq i32 %28, 536870910
  br i1 %29, label %30, label %32

30:                                               ; preds = %24
  %31 = call i32 (ptr, ...) @printf(ptr noundef @.str.1)
  br label %38

32:                                               ; preds = %24
  %33 = load ptr, ptr %5, align 8, !tbaa !12
  %34 = getelementptr inbounds nuw %struct.Saig_MvObj_t_, ptr %33, i32 0, i32 2
  %35 = load i32, ptr %34, align 4
  %36 = lshr i32 %35, 3
  %37 = call i32 (ptr, ...) @printf(ptr noundef @.str.2, i32 noundef %36)
  br label %38

38:                                               ; preds = %32, %30
  br label %39

39:                                               ; preds = %38
  %40 = load i32, ptr %6, align 4, !tbaa !14
  %41 = add nsw i32 %40, 1
  store i32 %41, ptr %6, align 4, !tbaa !14
  br label %9, !llvm.loop !86

42:                                               ; preds = %22
  %43 = call i32 (ptr, ...) @printf(ptr noundef @.str.3)
  call void @llvm.lifetime.end.p0(i64 4, ptr %6) #11
  call void @llvm.lifetime.end.p0(i64 8, ptr %5) #11
  ret void
}