; Function Attrs: nofree nounwind uwtable
define void @Saig_MvPrintState(i32 noundef %0, ptr noundef readonly captures(none) %1) local_unnamed_addr #8 {
  %3 = tail call i32 (ptr, ...) @printf(ptr noundef nonnull dereferenceable(1) @.str, i32 noundef %0)
  %4 = getelementptr inbounds nuw i8, ptr %1, i64 32
  %5 = load ptr, ptr %4, align 8, !tbaa !76
  %6 = getelementptr i8, ptr %5, i64 4
  %.val9 = load i32, ptr %6, align 4, !tbaa !21
  %7 = icmp sgt i32 %.val9, 0
  br i1 %7, label %.lr.ph, label %.critedge

.lr.ph:                                           ; preds = %2, %20
  %indvars.iv = phi i64 [ %indvars.iv.next, %20 ], [ 0, %2 ]
  %8 = phi ptr [ %21, %20 ], [ %5, %2 ]
  %9 = getelementptr i8, ptr %8, i64 8
  %.val8 = load ptr, ptr %9, align 8, !tbaa !24
  %10 = getelementptr inbounds nuw ptr, ptr %.val8, i64 %indvars.iv
  %11 = load ptr, ptr %10, align 8, !tbaa !27
  %12 = getelementptr inbounds nuw i8, ptr %11, i64 8
  %13 = load i32, ptr %12, align 4
  %14 = lshr i32 %13, 3
  %15 = icmp eq i32 %14, 536870910
  br i1 %15, label %16, label %18

16:                                               ; preds = %.lr.ph
  %17 = tail call i32 (ptr, ...) @printf(ptr noundef nonnull dereferenceable(1) @.str.1)
  br label %20

18:                                               ; preds = %.lr.ph
  %19 = tail call i32 (ptr, ...) @printf(ptr noundef nonnull dereferenceable(1) @.str.2, i32 noundef %14)
  br label %20

20:                                               ; preds = %16, %18
  %indvars.iv.next = add nuw nsw i64 %indvars.iv, 1
  %21 = load ptr, ptr %4, align 8, !tbaa !76
  %22 = getelementptr i8, ptr %21, i64 4
  %.val = load i32, ptr %22, align 4, !tbaa !21
  %23 = sext i32 %.val to i64
  %24 = icmp slt i64 %indvars.iv.next, %23
  br i1 %24, label %.lr.ph, label %.critedge, !llvm.loop !77

.critedge:                                        ; preds = %20, %2
  %putchar = tail call i32 @putchar(i32 10)
  ret void
}